target datalayout = "e-m:e-p270:32:32-p271:32:32-p272:64:64-i64:64-i128:128-f80:128-n8:16:32:64-S128"
target triple = "x86_64-unknown-linux-gnu"

%"class.icu_75::UMutex" = type { [40 x i8], %"struct.std::atomic", ptr }
%"struct.std::atomic" = type { %"struct.std::__atomic_base" }
%"struct.std::__atomic_base" = type { ptr }
%"class.icu_75::TimeZoneNamesDelegate" = type { %"class.icu_75::TimeZoneNames", ptr }
%"class.icu_75::TimeZoneNames" = type { %"class.icu_75::UObject" }
%"class.icu_75::UObject" = type { ptr }
%"struct.icu_75::TimeZoneNamesCacheEntry" = type { ptr, i32, double }

@_ZN6icu_75L18gTimeZoneNamesLockE = internal global %"class.icu_75::UMutex" zeroinitializer, align 8

; Function Attrs: mustprogress nounwind uwtable
define void @_ZN6icu_7513TimeZoneNamesD2Ev(ptr noundef nonnull align 8 dereferenceable(8) %this) unnamed_addr #0 align 2 {
entry:
  %this.addr = alloca ptr, align 8
  store ptr %this, ptr %this.addr, align 8
  %this1 = load ptr, ptr %this.addr, align 8
  call void @_ZN6icu_757UObjectD2Ev(ptr noundef nonnull align 8 dereferenceable(8) %this1) #9
  ret void
}

; Function Attrs: mustprogress nounwind uwtable
define void @_ZN6icu_7521TimeZoneNamesDelegateD2Ev(ptr noundef nonnull align 8 dereferenceable(16) %this) unnamed_addr #0 align 2 personality ptr @__gxx_personality_v0 {
entry:
  %this.addr = alloca ptr, align 8
  store ptr %this, ptr %this.addr, align 8
  %this1 = load ptr, ptr %this.addr, align 8
  store ptr getelementptr inbounds ({ [19 x ptr] }, ptr @_ZTVN6icu_7521TimeZoneNamesDelegateE, i32 0, i32 0, i32 2), ptr %this1, align 8
  invoke void @umtx_lock_75(ptr noundef @_ZN6icu_75L18gTimeZoneNamesLockE)
          to label %invoke.cont unwind label %terminate.lpad

invoke.cont:                                      ; preds = %entry
  %fTZnamesCacheEntry = getelementptr inbounds %"class.icu_75::TimeZoneNamesDelegate", ptr %this1, i32 0, i32 1
  %0 = load ptr, ptr %fTZnamesCacheEntry, align 8
  %tobool = icmp ne ptr %0, null
  br i1 %tobool, label %if.then, label %if.end

if.then:                                          ; preds = %invoke.cont
  %fTZnamesCacheEntry2 = getelementptr inbounds %"class.icu_75::TimeZoneNamesDelegate", ptr %this1, i32 0, i32 1
  %1 = load ptr, ptr %fTZnamesCacheEntry2, align 8
  %refCount = getelementptr inbounds %"struct.icu_75::TimeZoneNamesCacheEntry", ptr %1, i32 0, i32 1
  %2 = load i32, ptr %refCount, align 8
  %dec = add nsw i32 %2, -1
  store i32 %dec, ptr %refCount, align 8
  br label %if.end

if.end:                                           ; preds = %if.then, %invoke.cont
  invoke void @umtx_unlock_75(ptr noundef @_ZN6icu_75L18gTimeZoneNamesLockE)
          to label %invoke.cont3 unwind label %terminate.lpad

invoke.cont3:                                     ; preds = %if.end
  call void @_ZN6icu_7513TimeZoneNamesD2Ev(ptr noundef nonnull align 8 dereferenceable(8) %this1) #9
  ret void

terminate.lpad:                                   ; preds = %if.end, %entry
  %3 = landingpad { ptr, i32 }
          catch ptr null
  %4 = extractvalue { ptr, i32 } %3, 0
  call void @__clang_call_terminate(ptr %4) #11
  unreachable
}