; Function Attrs: mustprogress nounwind uwtable
define void @_ZN6icu_7521TimeZoneNamesDelegateD2Ev(ptr noundef nonnull align 8 dereferenceable(16) %this) unnamed_addr #7 align 2 personality ptr @__gxx_personality_v0 {
entry:
  store ptr getelementptr inbounds ({ [19 x ptr] }, ptr @_ZTVN6icu_7521TimeZoneNamesDelegateE, i64 0, i32 0, i64 2), ptr %this, align 8
  invoke void @umtx_lock_75(ptr noundef nonnull @_ZN6icu_75L18gTimeZoneNamesLockE)
          to label %invoke.cont unwind label %terminate.lpad

invoke.cont:                                      ; preds = %entry
  %fTZnamesCacheEntry = getelementptr inbounds i8, ptr %this, i64 8
  %0 = load ptr, ptr %fTZnamesCacheEntry, align 8
  %tobool.not = icmp eq ptr %0, null
  br i1 %tobool.not, label %if.end, label %if.then

if.then:                                          ; preds = %invoke.cont
  %refCount = getelementptr inbounds i8, ptr %0, i64 8
  %1 = load i32, ptr %refCount, align 8
  %dec = add nsw i32 %1, -1
  store i32 %dec, ptr %refCount, align 8
  br label %if.end

if.end:                                           ; preds = %if.then, %invoke.cont
  invoke void @umtx_unlock_75(ptr noundef nonnull @_ZN6icu_75L18gTimeZoneNamesLockE)
          to label %invoke.cont3 unwind label %terminate.lpad

invoke.cont3:                                     ; preds = %if.end
  tail call void @_ZN6icu_757UObjectD2Ev(ptr noundef nonnull align 8 dereferenceable(8) %this) #17
  ret void

terminate.lpad:                                   ; preds = %if.end, %entry
  %2 = landingpad { ptr, i32 }
          catch ptr null
  %3 = extractvalue { ptr, i32 } %2, 0
  tail call void @__clang_call_terminate(ptr %3) #20
  unreachable
}